target datalayout = "e-m:e-p270:32:32-p271:32:32-p272:64:64-i64:64-i128:128-f80:128-n8:16:32:64-S128"
target triple = "x86_64-pc-linux-gnu"

%struct.UCMapping = type { i32, %union.anon, i8, i8, i8, i8 }
%union.anon = type { i32 }

@.str.24 = private unnamed_addr constant [9 x i8] c"<U%04lX>\00", align 1
@.str.25 = private unnamed_addr constant [7 x i8] c"\\x%02X\00", align 1
@.str.26 = private unnamed_addr constant [6 x i8] c" |%u\0A\00", align 1
@.str.27 = private unnamed_addr constant [2 x i8] c"\0A\00", align 1

; Function Attrs: mustprogress uwtable
define internal void @_ZL12printMappingP9UCMappingPiPhP8_IO_FILE(ptr noundef %0, ptr noundef %1, ptr noundef %2, ptr noundef %3) #0 {
  %5 = alloca ptr, align 8
  %6 = alloca ptr, align 8
  %7 = alloca ptr, align 8
  %8 = alloca ptr, align 8
  %9 = alloca i32, align 4
  store ptr %0, ptr %5, align 8, !tbaa !8
  store ptr %1, ptr %6, align 8, !tbaa !23
  store ptr %2, ptr %7, align 8, !tbaa !24
  store ptr %3, ptr %8, align 8, !tbaa !10
  call void @llvm.lifetime.start.p0(i64 4, ptr %9) #12
  store i32 0, ptr %9, align 4, !tbaa !25
  br label %10

10:                                               ; preds = %26, %4
  %11 = load i32, ptr %9, align 4, !tbaa !25
  %12 = load ptr, ptr %5, align 8, !tbaa !8
  %13 = getelementptr inbounds nuw %struct.UCMapping, ptr %12, i32 0, i32 2
  %14 = load i8, ptr %13, align 4, !tbaa !12
  %15 = sext i8 %14 to i32
  %16 = icmp slt i32 %11, %15
  br i1 %16, label %17, label %29

17:                                               ; preds = %10
  %18 = load ptr, ptr %8, align 8, !tbaa !10
  %19 = load ptr, ptr %6, align 8, !tbaa !23
  %20 = load i32, ptr %9, align 4, !tbaa !25
  %21 = sext i32 %20 to i64
  %22 = getelementptr inbounds i32, ptr %19, i64 %21
  %23 = load i32, ptr %22, align 4, !tbaa !25
  %24 = sext i32 %23 to i64
  %25 = call i32 (ptr, ptr, ...) @fprintf(ptr noundef %18, ptr noundef @.str.24, i64 noundef %24) #12
  br label %26

26:                                               ; preds = %17
  %27 = load i32, ptr %9, align 4, !tbaa !25
  %28 = add nsw i32 %27, 1
  store i32 %28, ptr %9, align 4, !tbaa !25
  br label %10, !llvm.loop !26

29:                                               ; preds = %10
  %30 = load ptr, ptr %8, align 8, !tbaa !10
  %31 = call i32 @fputc(i32 noundef 32, ptr noundef %30)
  store i32 0, ptr %9, align 4, !tbaa !25
  br label %32

32:                                               ; preds = %48, %29
  %33 = load i32, ptr %9, align 4, !tbaa !25
  %34 = load ptr, ptr %5, align 8, !tbaa !8
  %35 = getelementptr inbounds nuw %struct.UCMapping, ptr %34, i32 0, i32 3
  %36 = load i8, ptr %35, align 1, !tbaa !20
  %37 = sext i8 %36 to i32
  %38 = icmp slt i32 %33, %37
  br i1 %38, label %39, label %51

39:                                               ; preds = %32
  %40 = load ptr, ptr %8, align 8, !tbaa !10
  %41 = load ptr, ptr %7, align 8, !tbaa !24
  %42 = load i32, ptr %9, align 4, !tbaa !25
  %43 = sext i32 %42 to i64
  %44 = getelementptr inbounds i8, ptr %41, i64 %43
  %45 = load i8, ptr %44, align 1, !tbaa !22
  %46 = zext i8 %45 to i32
  %47 = call i32 (ptr, ptr, ...) @fprintf(ptr noundef %40, ptr noundef @.str.25, i32 noundef %46) #12
  br label %48

48:                                               ; preds = %39
  %49 = load i32, ptr %9, align 4, !tbaa !25
  %50 = add nsw i32 %49, 1
  store i32 %50, ptr %9, align 4, !tbaa !25
  br label %32, !llvm.loop !28

51:                                               ; preds = %32
  %52 = load ptr, ptr %5, align 8, !tbaa !8
  %53 = getelementptr inbounds nuw %struct.UCMapping, ptr %52, i32 0, i32 4
  %54 = load i8, ptr %53, align 2, !tbaa !29
  %55 = sext i8 %54 to i32
  %56 = icmp sge i32 %55, 0
  br i1 %56, label %57, label %64

57:                                               ; preds = %51
  %58 = load ptr, ptr %8, align 8, !tbaa !10
  %59 = load ptr, ptr %5, align 8, !tbaa !8
  %60 = getelementptr inbounds nuw %struct.UCMapping, ptr %59, i32 0, i32 4
  %61 = load i8, ptr %60, align 2, !tbaa !29
  %62 = sext i8 %61 to i32
  %63 = call i32 (ptr, ptr, ...) @fprintf(ptr noundef %58, ptr noundef @.str.26, i32 noundef %62) #12
  br label %67

64:                                               ; preds = %51
  %65 = load ptr, ptr %8, align 8, !tbaa !10
  %66 = call i32 @fputs(ptr noundef @.str.27, ptr noundef %65)
  br label %67

67:                                               ; preds = %64, %57
  call void @llvm.lifetime.end.p0(i64 4, ptr %9) #12
  ret void
}