; Function Attrs: mustprogress nofree nounwind uwtable
define internal fastcc void @_ZL12printMappingP9UCMappingPiPhP8_IO_FILE(ptr noundef readonly captures(none) %0, ptr noundef readonly captures(none) %1, ptr noundef readonly captures(none) %2, ptr noundef captures(none) %3) unnamed_addr #0 {
  %5 = getelementptr inbounds nuw i8, ptr %0, i64 8
  %6 = load i8, ptr %5, align 4, !tbaa !3
  %7 = icmp sgt i8 %6, 0
  br i1 %7, label %.lr.ph, label %._crit_edge

.lr.ph:                                           ; preds = %4, %.lr.ph
  %indvars.iv = phi i64 [ %indvars.iv.next, %.lr.ph ], [ 0, %4 ]
  %8 = getelementptr inbounds nuw i32, ptr %1, i64 %indvars.iv
  %9 = load i32, ptr %8, align 4, !tbaa !18
  %10 = sext i32 %9 to i64
  %11 = tail call i32 (ptr, ptr, ...) @fprintf(ptr noundef %3, ptr noundef nonnull @.str.24, i64 noundef %10) #16
  %indvars.iv.next = add nuw nsw i64 %indvars.iv, 1
  %12 = load i8, ptr %5, align 4, !tbaa !3
  %13 = sext i8 %12 to i64
  %14 = icmp slt i64 %indvars.iv.next, %13
  br i1 %14, label %.lr.ph, label %._crit_edge, !llvm.loop !19

._crit_edge:                                      ; preds = %.lr.ph, %4
  %15 = tail call i32 @fputc(i32 noundef 32, ptr noundef %3)
  %16 = getelementptr inbounds nuw i8, ptr %0, i64 9
  %17 = load i8, ptr %16, align 1, !tbaa !15
  %18 = icmp sgt i8 %17, 0
  br i1 %18, label %.lr.ph20, label %._crit_edge21

.lr.ph20:                                         ; preds = %._crit_edge, %.lr.ph20
  %indvars.iv23 = phi i64 [ %indvars.iv.next24, %.lr.ph20 ], [ 0, %._crit_edge ]
  %19 = getelementptr inbounds nuw i8, ptr %2, i64 %indvars.iv23
  %20 = load i8, ptr %19, align 1, !tbaa !17
  %21 = zext i8 %20 to i32
  %22 = tail call i32 (ptr, ptr, ...) @fprintf(ptr noundef %3, ptr noundef nonnull @.str.25, i32 noundef %21) #16
  %indvars.iv.next24 = add nuw nsw i64 %indvars.iv23, 1
  %23 = load i8, ptr %16, align 1, !tbaa !15
  %24 = sext i8 %23 to i64
  %25 = icmp slt i64 %indvars.iv.next24, %24
  br i1 %25, label %.lr.ph20, label %._crit_edge21, !llvm.loop !21

._crit_edge21:                                    ; preds = %.lr.ph20, %._crit_edge
  %26 = getelementptr inbounds nuw i8, ptr %0, i64 10
  %27 = load i8, ptr %26, align 2, !tbaa !22
  %28 = icmp sgt i8 %27, -1
  br i1 %28, label %29, label %32

29:                                               ; preds = %._crit_edge21
  %30 = zext nneg i8 %27 to i32
  %31 = tail call i32 (ptr, ptr, ...) @fprintf(ptr noundef %3, ptr noundef nonnull @.str.26, i32 noundef %30) #16
  br label %33

32:                                               ; preds = %._crit_edge21
  %fputc = tail call i32 @fputc(i32 10, ptr %3)
  br label %33

33:                                               ; preds = %32, %29
  ret void
}